Certificate:
    Data:
        Version: 3 (0x2)
        Serial Number: 1 (0x1)
    Signature Algorithm: sha256WithRSAEncryption
        Issuer: CN=eur, C=FR, ST=PACA, L=Aix, O=Eurecom, OU=CM
        Validity
            Not Before: Dec 17 17:59:47 2014 GMT
            Not After : Dec 17 17:59:47 2015 GMT
        Subject: C=FR, ST=PACA, O=Eurecom, OU=CM, CN=wings-Precision-WorkStation-T3400.eur
        Subject Public Key Info:
            Public Key Algorithm: rsaEncryption
                Public-Key: (1024 bit)
                Modulus:
                    00:b9:e1:45:b1:0a:c0:1f:8f:d8:b4:64:1f:2b:60:
                    07:1c:76:3e:eb:16:0d:72:57:71:22:33:05:8a:6c:
                    34:0e:5b:e1:45:f2:89:fb:ad:25:6a:b3:96:e9:22:
                    4c:bc:6d:71:e4:dd:99:5a:0f:a4:b5:42:a3:c6:47:
                    3d:e2:58:51:37:76:11:81:a7:d3:74:b3:ff:63:e9:
                    e3:fa:0e:bc:40:05:71:5c:5e:e3:6b:84:b7:d9:88:
                    8b:72:15:3b:a5:ca:0d:96:4c:c6:09:df:d8:21:58:
                    56:45:f6:6e:8d:d7:fb:c5:0a:3f:ff:41:47:f6:c7:
                    89:1e:b2:36:7b:a3:26:d5:bf
                Exponent: 65537 (0x10001)
        X509v3 extensions:
            X509v3 Basic Constraints: 
                CA:FALSE
            Netscape Comment: 
                OpenSSL Generated Certificate
            X509v3 Subject Key Identifier: 
                32:E7:B1:5C:80:0E:E1:86:0E:0F:77:00:FE:79:A2:8C:30:11:4D:9F
            X509v3 Authority Key Identifier: 
                keyid:15:29:04:5A:98:BA:C3:5F:C7:43:B8:6C:83:89:41:26:58:5D:6D:3B

    Signature Algorithm: sha256WithRSAEncryption
         6e:6a:ef:40:7f:5c:e9:d7:27:94:03:fc:6d:7f:46:62:f3:cf:
         0f:44:36:cc:99:f0:e0:30:be:77:b3:9e:5b:d6:9f:87:fe:79:
         de:7d:67:d6:2f:e8:d5:54:7d:af:09:62:3a:cb:69:75:78:84:
         21:50:4f:c5:d7:cc:7b:b9:a0:bf:f0:8d:e8:09:28:44:2a:f4:
         ca:7c:66:af:06:3e:ee:38:4d:d5:88:cf:d3:bf:20:6b:4f:90:
         c6:5d:ed:d1:b6:67:a9:56:83:42:86:4b:2b:94:87:5e:08:20:
         ac:a4:db:a6:f1:d7:3a:f6:e5:c6:7a:7a:ed:b8:2d:91:db:70:
         6c:5a
-----BEGIN CERTIFICATE-----
MIICszCCAhygAwIBAgIBATANBgkqhkiG9w0BAQsFADBXMQwwCgYDVQQDDANldXIx
CzAJBgNVBAYTAkZSMQ0wCwYDVQQIDARQQUNBMQwwCgYDVQQHDANBaXgxEDAOBgNV
BAoMB0V1cmVjb20xCzAJBgNVBAsMAkNNMB4XDTE0MTIxNzE3NTk0N1oXDTE1MTIx
NzE3NTk0N1owazELMAkGA1UEBhMCRlIxDTALBgNVBAgMBFBBQ0ExEDAOBgNVBAoM
B0V1cmVjb20xCzAJBgNVBAsMAkNNMS4wLAYDVQQDDCV3aW5ncy1QcmVjaXNpb24t
V29ya1N0YXRpb24tVDM0MDAuZXVyMIGfMA0GCSqGSIb3DQEBAQUAA4GNADCBiQKB
gQC54UWxCsAfj9i0ZB8rYAccdj7rFg1yV3EiMwWKbDQOW+FF8on7rSVqs5bpIky8
bXHk3ZlaD6S1QqPGRz3iWFE3dhGBp9N0s/9j6eP6DrxABXFcXuNrhLfZiItyFTul
yg2WTMYJ39ghWFZF9m6N1/vFCj//QUf2x4kesjZ7oybVvwIDAQABo3sweTAJBgNV
HRMEAjAAMCwGCWCGSAGG+EIBDQQfFh1PcGVuU1NMIEdlbmVyYXRlZCBDZXJ0aWZp
Y2F0ZTAdBgNVHQ4EFgQUMuexXIAO4YYOD3cA/nmijDARTZ8wHwYDVR0jBBgwFoAU
FSkEWpi6w1/HQ7hsg4lBJlhdbTswDQYJKoZIhvcNAQELBQADgYEAbmrvQH9c6dcn
lAP8bX9GYvPPD0Q2zJnw4DC+d7OeW9afh/553n1n1i/o1VR9rwliOstpdXiEIVBP
xdfMe7mgv/CN6AkoRCr0ynxmrwY+7jhN1YjP078ga0+Qxl3t0bZnqVaDQoZLK5SH
XgggrKTbpvHXOvblxnp67bgtkdtwbFo=
-----END CERTIFICATE-----
